target datalayout = "e-m:e-p270:32:32-p271:32:32-p272:64:64-i64:64-i128:128-f80:128-n8:16:32:64-S128"
target triple = "x86_64-pc-linux-gnu"

%"class.cv::Size_" = type { i32, i32 }
%"class.testing::internal::ParamGenerator" = type { %"class.testing::internal::linked_ptr" }
%"class.testing::internal::linked_ptr" = type { ptr, %"class.testing::internal::linked_ptr_internal" }
%"class.testing::internal::linked_ptr_internal" = type { ptr }
%"class.testing::internal::CartesianProductHolder2" = type { %"class.testing::internal::ValueArray2", %"class.testing::internal::ValueArray2.83" }
%"class.testing::internal::ValueArray2" = type { %"class.cv::Size_", %"class.cv::Size_" }
%"class.testing::internal::ValueArray2.83" = type { %"class.perf::MatType", %"class.perf::MatType" }
%"class.perf::MatType" = type { i32 }

@_ZN4perfL9szSmall64E = internal global %"class.cv::Size_" zeroinitializer, align 4
@_ZN4perfL10szSmall128E = internal global %"class.cv::Size_" zeroinitializer, align 4

; Function Attrs: mustprogress nounwind uwtable
define linkonce_odr hidden void @_ZN7testing8internal11ValueArray2IN4perf7MatTypeES3_EC2ERKS4_(ptr noundef nonnull align 4 dereferenceable(8) %0, ptr noundef nonnull align 4 dereferenceable(8) %1) unnamed_addr #7 comdat align 2 {
  %3 = alloca ptr, align 8
  %4 = alloca ptr, align 8
  store ptr %0, ptr %3, align 8, !tbaa !321
  store ptr %1, ptr %4, align 8, !tbaa !321
  %5 = load ptr, ptr %3, align 8
  %6 = getelementptr inbounds nuw %"class.testing::internal::ValueArray2.83", ptr %5, i32 0, i32 0
  %7 = load ptr, ptr %4, align 8, !tbaa !321
  %8 = getelementptr inbounds nuw %"class.testing::internal::ValueArray2.83", ptr %7, i32 0, i32 0
  call void @llvm.memcpy.p0.p0.i64(ptr align 4 %6, ptr align 4 %8, i64 4, i1 false), !tbaa.struct !323
  %9 = getelementptr inbounds nuw %"class.testing::internal::ValueArray2.83", ptr %5, i32 0, i32 1
  %10 = load ptr, ptr %4, align 8, !tbaa !321
  %11 = getelementptr inbounds nuw %"class.testing::internal::ValueArray2.83", ptr %10, i32 0, i32 1
  call void @llvm.memcpy.p0.p0.i64(ptr align 4 %9, ptr align 4 %11, i64 4, i1 false), !tbaa.struct !323
  ret void
}

; Function Attrs: mustprogress nounwind uwtable
define linkonce_odr hidden void @_ZN7testing8internal11ValueArray2IN2cv5Size_IiEES4_EC2ERKS5_(ptr noundef nonnull align 4 dereferenceable(16) %0, ptr noundef nonnull align 4 dereferenceable(16) %1) unnamed_addr #7 comdat align 2 {
  %3 = alloca ptr, align 8
  %4 = alloca ptr, align 8
  store ptr %0, ptr %3, align 8, !tbaa !319
  store ptr %1, ptr %4, align 8, !tbaa !319
  %5 = load ptr, ptr %3, align 8
  %6 = getelementptr inbounds nuw %"class.testing::internal::ValueArray2", ptr %5, i32 0, i32 0
  %7 = load ptr, ptr %4, align 8, !tbaa !319
  %8 = getelementptr inbounds nuw %"class.testing::internal::ValueArray2", ptr %7, i32 0, i32 0
  call void @llvm.memcpy.p0.p0.i64(ptr align 4 %6, ptr align 4 %8, i64 8, i1 false), !tbaa.struct !38
  %9 = getelementptr inbounds nuw %"class.testing::internal::ValueArray2", ptr %5, i32 0, i32 1
  %10 = load ptr, ptr %4, align 8, !tbaa !319
  %11 = getelementptr inbounds nuw %"class.testing::internal::ValueArray2", ptr %10, i32 0, i32 1
  call void @llvm.memcpy.p0.p0.i64(ptr align 4 %9, ptr align 4 %11, i64 8, i1 false), !tbaa.struct !38
  ret void
}

; Function Attrs: mustprogress uwtable
define linkonce_odr hidden void @_ZN7testing8internal23CartesianProductHolder2INS0_11ValueArray2IN2cv5Size_IiEES5_EENS2_IN4perf7MatTypeES8_EEEC2ERKS6_RKS9_(ptr noundef nonnull align 4 dereferenceable(24) %0, ptr noundef nonnull align 4 dereferenceable(16) %1, ptr noundef nonnull align 4 dereferenceable(8) %2) unnamed_addr #6 comdat align 2 {
  %4 = alloca ptr, align 8
  %5 = alloca ptr, align 8
  %6 = alloca ptr, align 8
  store ptr %0, ptr %4, align 8, !tbaa !324
  store ptr %1, ptr %5, align 8, !tbaa !319
  store ptr %2, ptr %6, align 8, !tbaa !321
  %7 = load ptr, ptr %4, align 8
  %8 = getelementptr inbounds nuw %"class.testing::internal::CartesianProductHolder2", ptr %7, i32 0, i32 0
  %9 = load ptr, ptr %5, align 8, !tbaa !319
  call void @_ZN7testing8internal11ValueArray2IN2cv5Size_IiEES4_EC2ERKS5_(ptr noundef nonnull align 4 dereferenceable(16) %8, ptr noundef nonnull align 4 dereferenceable(16) %9)
  %10 = getelementptr inbounds nuw %"class.testing::internal::CartesianProductHolder2", ptr %7, i32 0, i32 1
  %11 = load ptr, ptr %6, align 8, !tbaa !321
  call void @_ZN7testing8internal11ValueArray2IN4perf7MatTypeES3_EC2ERKS4_(ptr noundef nonnull align 4 dereferenceable(8) %10, ptr noundef nonnull align 4 dereferenceable(8) %11)
  ret void
}

; Function Attrs: mustprogress nounwind uwtable
define linkonce_odr hidden void @_ZN7testing8internal11ValueArray2IN4perf7MatTypeES3_EC2ES3_S3_(ptr noundef nonnull align 4 dereferenceable(8) %0, i32 %1, i32 %2) unnamed_addr #7 comdat align 2 {
  %4 = alloca %"class.perf::MatType", align 4
  %5 = alloca %"class.perf::MatType", align 4
  %6 = alloca ptr, align 8
  %7 = getelementptr inbounds nuw %"class.perf::MatType", ptr %4, i32 0, i32 0
  store i32 %1, ptr %7, align 4
  %8 = getelementptr inbounds nuw %"class.perf::MatType", ptr %5, i32 0, i32 0
  store i32 %2, ptr %8, align 4
  store ptr %0, ptr %6, align 8, !tbaa !321
  %9 = load ptr, ptr %6, align 8
  %10 = getelementptr inbounds nuw %"class.testing::internal::ValueArray2.83", ptr %9, i32 0, i32 0
  call void @llvm.memcpy.p0.p0.i64(ptr align 4 %10, ptr align 4 %4, i64 4, i1 false), !tbaa.struct !323
  %11 = getelementptr inbounds nuw %"class.testing::internal::ValueArray2.83", ptr %9, i32 0, i32 1
  call void @llvm.memcpy.p0.p0.i64(ptr align 4 %11, ptr align 4 %5, i64 4, i1 false), !tbaa.struct !323
  ret void
}

; Function Attrs: mustprogress nounwind uwtable
define linkonce_odr hidden void @_ZN7testing8internal11ValueArray2IN2cv5Size_IiEES4_EC2ES4_S4_(ptr noundef nonnull align 4 dereferenceable(16) %0, i64 %1, i64 %2) unnamed_addr #7 comdat align 2 {
  %4 = alloca %"class.cv::Size_", align 4
  %5 = alloca %"class.cv::Size_", align 4
  %6 = alloca ptr, align 8
  store i64 %1, ptr %4, align 4
  store i64 %2, ptr %5, align 4
  store ptr %0, ptr %6, align 8, !tbaa !319
  %7 = load ptr, ptr %6, align 8
  %8 = getelementptr inbounds nuw %"class.testing::internal::ValueArray2", ptr %7, i32 0, i32 0
  call void @llvm.memcpy.p0.p0.i64(ptr align 4 %8, ptr align 4 %4, i64 8, i1 false), !tbaa.struct !38
  %9 = getelementptr inbounds nuw %"class.testing::internal::ValueArray2", ptr %7, i32 0, i32 1
  call void @llvm.memcpy.p0.p0.i64(ptr align 4 %9, ptr align 4 %5, i64 8, i1 false), !tbaa.struct !38
  ret void
}

; Function Attrs: mustprogress uwtable
define linkonce_odr hidden void @_ZN7testing7CombineINS_8internal11ValueArray2IN2cv5Size_IiEES5_EENS2_IN4perf7MatTypeES8_EEEENS1_23CartesianProductHolder2IT_T0_EERKSB_RKSC_(ptr dead_on_unwind noalias writable sret(%"class.testing::internal::CartesianProductHolder2") align 4 %0, ptr noundef nonnull align 4 dereferenceable(16) %1, ptr noundef nonnull align 4 dereferenceable(8) %2) #6 comdat {
  %4 = alloca ptr, align 8
  %5 = alloca ptr, align 8
  %6 = alloca ptr, align 8
  store ptr %0, ptr %4, align 8
  store ptr %1, ptr %5, align 8, !tbaa !319
  store ptr %2, ptr %6, align 8, !tbaa !321
  %7 = load ptr, ptr %5, align 8, !tbaa !319
  %8 = load ptr, ptr %6, align 8, !tbaa !321
  call void @_ZN7testing8internal23CartesianProductHolder2INS0_11ValueArray2IN2cv5Size_IiEES5_EENS2_IN4perf7MatTypeES8_EEEC2ERKS6_RKS9_(ptr noundef nonnull align 4 dereferenceable(24) %0, ptr noundef nonnull align 4 dereferenceable(16) %7, ptr noundef nonnull align 4 dereferenceable(8) %8)
  ret void
}

; Function Attrs: mustprogress uwtable
define linkonce_odr hidden void @_ZN7testing6ValuesIN4perf7MatTypeES2_EENS_8internal11ValueArray2IT_T0_EES5_S6_(ptr dead_on_unwind noalias writable sret(%"class.testing::internal::ValueArray2.83") align 4 %0, i32 %1, i32 %2) #6 comdat {
  %4 = alloca ptr, align 8
  %5 = alloca %"class.perf::MatType", align 4
  %6 = alloca %"class.perf::MatType", align 4
  %7 = alloca %"class.perf::MatType", align 4
  %8 = alloca %"class.perf::MatType", align 4
  store ptr %0, ptr %4, align 8
  %9 = getelementptr inbounds nuw %"class.perf::MatType", ptr %5, i32 0, i32 0
  store i32 %1, ptr %9, align 4
  %10 = getelementptr inbounds nuw %"class.perf::MatType", ptr %6, i32 0, i32 0
  store i32 %2, ptr %10, align 4
  call void @llvm.memcpy.p0.p0.i64(ptr align 4 %7, ptr align 4 %5, i64 4, i1 false), !tbaa.struct !323
  call void @llvm.memcpy.p0.p0.i64(ptr align 4 %8, ptr align 4 %6, i64 4, i1 false), !tbaa.struct !323
  %11 = getelementptr inbounds nuw %"class.perf::MatType", ptr %7, i32 0, i32 0
  %12 = load i32, ptr %11, align 4
  %13 = getelementptr inbounds nuw %"class.perf::MatType", ptr %8, i32 0, i32 0
  %14 = load i32, ptr %13, align 4
  call void @_ZN7testing8internal11ValueArray2IN4perf7MatTypeES3_EC2ES3_S3_(ptr noundef nonnull align 4 dereferenceable(8) %0, i32 %12, i32 %14)
  ret void
}

; Function Attrs: mustprogress nounwind uwtable
define linkonce_odr hidden void @_ZN4perf7MatTypeC2Ei(ptr noundef nonnull align 4 dereferenceable(4) %0, i32 noundef %1) unnamed_addr #7 comdat align 2 {
  %3 = alloca ptr, align 8
  %4 = alloca i32, align 4
  store ptr %0, ptr %3, align 8, !tbaa !197
  store i32 %1, ptr %4, align 4, !tbaa !9
  %5 = load ptr, ptr %3, align 8
  %6 = getelementptr inbounds nuw %"class.perf::MatType", ptr %5, i32 0, i32 0
  %7 = load i32, ptr %4, align 4, !tbaa !9
  store i32 %7, ptr %6, align 4, !tbaa !199
  ret void
}

; Function Attrs: mustprogress uwtable
define linkonce_odr hidden void @_ZN7testing6ValuesIN2cv5Size_IiEES3_EENS_8internal11ValueArray2IT_T0_EES6_S7_(ptr dead_on_unwind noalias writable sret(%"class.testing::internal::ValueArray2") align 4 %0, i64 %1, i64 %2) #6 comdat {
  %4 = alloca ptr, align 8
  %5 = alloca %"class.cv::Size_", align 4
  %6 = alloca %"class.cv::Size_", align 4
  %7 = alloca %"class.cv::Size_", align 4
  %8 = alloca %"class.cv::Size_", align 4
  store ptr %0, ptr %4, align 8
  store i64 %1, ptr %5, align 4
  store i64 %2, ptr %6, align 4
  call void @llvm.memcpy.p0.p0.i64(ptr align 4 %7, ptr align 4 %5, i64 8, i1 false), !tbaa.struct !38
  call void @llvm.memcpy.p0.p0.i64(ptr align 4 %8, ptr align 4 %6, i64 8, i1 false), !tbaa.struct !38
  %9 = load i64, ptr %7, align 4
  %10 = load i64, ptr %8, align 4
  call void @_ZN7testing8internal11ValueArray2IN2cv5Size_IiEES4_EC2ES4_S4_(ptr noundef nonnull align 4 dereferenceable(16) %0, i64 %9, i64 %10)
  ret void
}

; Function Attrs: mustprogress uwtable
define internal void @_ZN11opencv_test12_GLOBAL__N_152gtest_Size_MatType_Registration_Shift_EvalGenerator_Ev(ptr dead_on_unwind noalias writable sret(%"class.testing::internal::ParamGenerator") align 8 %0) #6 {
  %2 = alloca ptr, align 8
  %3 = alloca %"class.testing::internal::CartesianProductHolder2", align 4
  %4 = alloca %"class.testing::internal::ValueArray2", align 4
  %5 = alloca %"class.cv::Size_", align 4
  %6 = alloca %"class.cv::Size_", align 4
  %7 = alloca %"class.testing::internal::ValueArray2.83", align 4
  %8 = alloca %"class.perf::MatType", align 4
  %9 = alloca %"class.perf::MatType", align 4
  store ptr %0, ptr %2, align 8
  call void @llvm.lifetime.start.p0(i64 24, ptr %3) #3
  call void @llvm.lifetime.start.p0(i64 16, ptr %4) #3
  call void @llvm.memcpy.p0.p0.i64(ptr align 4 %5, ptr align 4 @_ZN4perfL9szSmall64E, i64 8, i1 false), !tbaa.struct !38
  call void @llvm.memcpy.p0.p0.i64(ptr align 4 %6, ptr align 4 @_ZN4perfL10szSmall128E, i64 8, i1 false), !tbaa.struct !38
  %10 = load i64, ptr %5, align 4
  %11 = load i64, ptr %6, align 4
  call void @_ZN7testing6ValuesIN2cv5Size_IiEES3_EENS_8internal11ValueArray2IT_T0_EES6_S7_(ptr dead_on_unwind writable sret(%"class.testing::internal::ValueArray2") align 4 %4, i64 %10, i64 %11)
  call void @llvm.lifetime.start.p0(i64 8, ptr %7) #3
  call void @_ZN4perf7MatTypeC2Ei(ptr noundef nonnull align 4 dereferenceable(4) %8, i32 noundef 6)
  call void @_ZN4perf7MatTypeC2Ei(ptr noundef nonnull align 4 dereferenceable(4) %9, i32 noundef 22)
  %12 = getelementptr inbounds nuw %"class.perf::MatType", ptr %8, i32 0, i32 0
  %13 = load i32, ptr %12, align 4
  %14 = getelementptr inbounds nuw %"class.perf::MatType", ptr %9, i32 0, i32 0
  %15 = load i32, ptr %14, align 4
  call void @_ZN7testing6ValuesIN4perf7MatTypeES2_EENS_8internal11ValueArray2IT_T0_EES5_S6_(ptr dead_on_unwind writable sret(%"class.testing::internal::ValueArray2.83") align 4 %7, i32 %13, i32 %15)
  call void @_ZN7testing7CombineINS_8internal11ValueArray2IN2cv5Size_IiEES5_EENS2_IN4perf7MatTypeES8_EEEENS1_23CartesianProductHolder2IT_T0_EERKSB_RKSC_(ptr dead_on_unwind writable sret(%"class.testing::internal::CartesianProductHolder2") align 4 %3, ptr noundef nonnull align 4 dereferenceable(16) %4, ptr noundef nonnull align 4 dereferenceable(8) %7)
  call void @_ZNK7testing8internal23CartesianProductHolder2INS0_11ValueArray2IN2cv5Size_IiEES5_EENS2_IN4perf7MatTypeES8_EEEcvNS0_14ParamGeneratorISt5tupleIJT_T0_EEEEIS5_S8_EEv(ptr dead_on_unwind writable sret(%"class.testing::internal::ParamGenerator") align 8 %0, ptr noundef nonnull align 4 dereferenceable(24) %3)
  call void @llvm.lifetime.end.p0(i64 8, ptr %7) #3
  call void @llvm.lifetime.end.p0(i64 16, ptr %4) #3
  call void @llvm.lifetime.end.p0(i64 24, ptr %3) #3
  ret void
}